target datalayout = "e-m:e-p270:32:32-p271:32:32-p272:64:64-i64:64-i128:128-f80:128-n8:16:32:64-S128"
target triple = "x86_64-pc-linux-gnu"

%struct.PJconsts = type { ptr, ptr, ptr, ptr, ptr, ptr, ptr, ptr, ptr, ptr, ptr, ptr, i32, ptr, ptr, ptr, ptr, ptr, ptr, ptr, ptr, double, double, double, double, double, double, double, double, double, double, double, double, double, double, double, double, double, double, double, double, double, double, i32, i32, i32, i32, i32, i32, i32, i32, i32, i32, i32, ptr, ptr, ptr, ptr, ptr, ptr, double, double, double, double, double, double, double, double, double, double, double, i32, [7 x double], i32, ptr, ptr, double, double, i32, [4 x i8], %"class.std::shared_ptr", i8, double, i8, %"class.std::__cxx11::basic_string", %"class.std::__cxx11::basic_string", %"class.std::__cxx11::basic_string", i8, %"class.std::vector", i32, %"class.std::vector.3", i32, i8, i8, i8, ptr }
%"class.std::shared_ptr" = type { %"class.std::__shared_ptr" }
%"class.std::__shared_ptr" = type { ptr, %"class.std::__shared_count" }
%"class.std::__shared_count" = type { ptr }
%"class.std::__cxx11::basic_string" = type { %"struct.std::__cxx11::basic_string<char>::_Alloc_hider", i64, %union.anon }
%"struct.std::__cxx11::basic_string<char>::_Alloc_hider" = type { ptr }
%union.anon = type { i64, [8 x i8] }
%"class.std::vector" = type { %"struct.std::_Vector_base" }
%"struct.std::_Vector_base" = type { %"struct.std::_Vector_base<osgeo::proj::operation::GridDescription, std::allocator<osgeo::proj::operation::GridDescription>>::_Vector_impl" }
%"struct.std::_Vector_base<osgeo::proj::operation::GridDescription, std::allocator<osgeo::proj::operation::GridDescription>>::_Vector_impl" = type { %"struct.std::_Vector_base<osgeo::proj::operation::GridDescription, std::allocator<osgeo::proj::operation::GridDescription>>::_Vector_impl_data" }
%"struct.std::_Vector_base<osgeo::proj::operation::GridDescription, std::allocator<osgeo::proj::operation::GridDescription>>::_Vector_impl_data" = type { ptr, ptr, ptr }
%"class.std::vector.3" = type { %"struct.std::_Vector_base.4" }
%"struct.std::_Vector_base.4" = type { %"struct.std::_Vector_base<PJCoordOperation, std::allocator<PJCoordOperation>>::_Vector_impl" }
%"struct.std::_Vector_base<PJCoordOperation, std::allocator<PJCoordOperation>>::_Vector_impl" = type { %"struct.std::_Vector_base<PJCoordOperation, std::allocator<PJCoordOperation>>::_Vector_impl_data" }
%"struct.std::_Vector_base<PJCoordOperation, std::allocator<PJCoordOperation>>::_Vector_impl_data" = type { ptr, ptr, ptr }
%"struct.(anonymous namespace)::pj_opaque_helmert" = type { %struct.PJ_XYZ, %struct.PJ_XYZ, %struct.PJ_XYZ, %struct.PJ_XYZ, %struct.PJ_OPK, %struct.PJ_OPK, %struct.PJ_OPK, double, double, double, double, double, double, [3 x [3 x double]], double, double, i32, i32, i32, i32 }
%struct.PJ_XYZ = type { double, double, double }
%struct.PJ_OPK = type { double, double, double }
%struct.PJ_XY = type { double, double }
%struct.PJ_LP = type { double, double }
%union.PJ_COORD = type { [4 x double] }

; Function Attrs: mustprogress nounwind uwtable
define internal { double, double } @_ZL15helmert_forward5PJ_LPP8PJconsts(double %0, double %1, ptr noundef %2) #3 {
  %4 = alloca %struct.PJ_XY, align 8
  %5 = alloca %struct.PJ_LP, align 8
  %6 = alloca ptr, align 8
  %7 = alloca ptr, align 8
  %8 = alloca %union.PJ_COORD, align 8
  %9 = alloca double, align 8
  %10 = alloca double, align 8
  %11 = alloca double, align 8
  %12 = alloca double, align 8
  %13 = getelementptr inbounds nuw { double, double }, ptr %5, i32 0, i32 0
  store double %0, ptr %13, align 8
  %14 = getelementptr inbounds nuw { double, double }, ptr %5, i32 0, i32 1
  store double %1, ptr %14, align 8
  store ptr %2, ptr %6, align 8, !tbaa !3
  call void @llvm.lifetime.start.p0(i64 8, ptr %7) #10
  %15 = load ptr, ptr %6, align 8, !tbaa !3
  %16 = getelementptr inbounds nuw %struct.PJconsts, ptr %15, i32 0, i32 11
  %17 = load ptr, ptr %16, align 8, !tbaa !48
  store ptr %17, ptr %7, align 8, !tbaa !49
  call void @llvm.lifetime.start.p0(i64 32, ptr %8) #10
  call void @llvm.memset.p0.i64(ptr align 8 %8, i8 0, i64 32, i1 false)
  call void @llvm.lifetime.start.p0(i64 8, ptr %9) #10
  call void @llvm.lifetime.start.p0(i64 8, ptr %10) #10
  call void @llvm.lifetime.start.p0(i64 8, ptr %11) #10
  call void @llvm.lifetime.start.p0(i64 8, ptr %12) #10
  call void @llvm.memcpy.p0.p0.i64(ptr align 8 %8, ptr align 8 %5, i64 16, i1 false), !tbaa.struct !87
  %18 = load ptr, ptr %7, align 8, !tbaa !49
  %19 = getelementptr inbounds nuw %"struct.(anonymous namespace)::pj_opaque_helmert", ptr %18, i32 0, i32 10
  %20 = load double, ptr %19, align 8, !tbaa !77
  %21 = call double @cos(double noundef %20) #10, !tbaa !88
  %22 = load ptr, ptr %7, align 8, !tbaa !49
  %23 = getelementptr inbounds nuw %"struct.(anonymous namespace)::pj_opaque_helmert", ptr %22, i32 0, i32 7
  %24 = load double, ptr %23, align 8, !tbaa !76
  %25 = fmul double %21, %24
  store double %25, ptr %11, align 8, !tbaa !53
  %26 = load ptr, ptr %7, align 8, !tbaa !49
  %27 = getelementptr inbounds nuw %"struct.(anonymous namespace)::pj_opaque_helmert", ptr %26, i32 0, i32 10
  %28 = load double, ptr %27, align 8, !tbaa !77
  %29 = call double @sin(double noundef %28) #10, !tbaa !88
  %30 = load ptr, ptr %7, align 8, !tbaa !49
  %31 = getelementptr inbounds nuw %"struct.(anonymous namespace)::pj_opaque_helmert", ptr %30, i32 0, i32 7
  %32 = load double, ptr %31, align 8, !tbaa !76
  %33 = fmul double %29, %32
  store double %33, ptr %12, align 8, !tbaa !53
  %34 = getelementptr inbounds nuw %struct.PJ_XY, ptr %8, i32 0, i32 0
  %35 = load double, ptr %34, align 8, !tbaa !52
  store double %35, ptr %9, align 8, !tbaa !53
  %36 = getelementptr inbounds nuw %struct.PJ_XY, ptr %8, i32 0, i32 1
  %37 = load double, ptr %36, align 8, !tbaa !52
  store double %37, ptr %10, align 8, !tbaa !53
  %38 = load double, ptr %11, align 8, !tbaa !53
  %39 = load double, ptr %9, align 8, !tbaa !53
  %40 = load double, ptr %12, align 8, !tbaa !53
  %41 = load double, ptr %10, align 8, !tbaa !53
  %42 = fmul double %40, %41
  %43 = call double @llvm.fmuladd.f64(double %38, double %39, double %42)
  %44 = load ptr, ptr %7, align 8, !tbaa !49
  %45 = getelementptr inbounds nuw %"struct.(anonymous namespace)::pj_opaque_helmert", ptr %44, i32 0, i32 1
  %46 = getelementptr inbounds nuw %struct.PJ_XYZ, ptr %45, i32 0, i32 0
  %47 = load double, ptr %46, align 8, !tbaa !54
  %48 = fadd double %43, %47
  %49 = getelementptr inbounds nuw %struct.PJ_XY, ptr %8, i32 0, i32 0
  store double %48, ptr %49, align 8, !tbaa !52
  %50 = load double, ptr %12, align 8, !tbaa !53
  %51 = fneg double %50
  %52 = load double, ptr %9, align 8, !tbaa !53
  %53 = load double, ptr %11, align 8, !tbaa !53
  %54 = load double, ptr %10, align 8, !tbaa !53
  %55 = fmul double %53, %54
  %56 = call double @llvm.fmuladd.f64(double %51, double %52, double %55)
  %57 = load ptr, ptr %7, align 8, !tbaa !49
  %58 = getelementptr inbounds nuw %"struct.(anonymous namespace)::pj_opaque_helmert", ptr %57, i32 0, i32 1
  %59 = getelementptr inbounds nuw %struct.PJ_XYZ, ptr %58, i32 0, i32 1
  %60 = load double, ptr %59, align 8, !tbaa !58
  %61 = fadd double %56, %60
  %62 = getelementptr inbounds nuw %struct.PJ_XY, ptr %8, i32 0, i32 1
  store double %61, ptr %62, align 8, !tbaa !52
  call void @llvm.memcpy.p0.p0.i64(ptr align 8 %4, ptr align 8 %8, i64 16, i1 false), !tbaa.struct !87
  call void @llvm.lifetime.end.p0(i64 8, ptr %12) #10
  call void @llvm.lifetime.end.p0(i64 8, ptr %11) #10
  call void @llvm.lifetime.end.p0(i64 8, ptr %10) #10
  call void @llvm.lifetime.end.p0(i64 8, ptr %9) #10
  call void @llvm.lifetime.end.p0(i64 32, ptr %8) #10
  call void @llvm.lifetime.end.p0(i64 8, ptr %7) #10
  %63 = load { double, double }, ptr %4, align 8
  ret { double, double } %63
}