; Function Attrs: mustprogress nofree nounwind willreturn memory(readwrite, inaccessiblemem: write) uwtable
define internal { double, double } @_ZL15helmert_forward5PJ_LPP8PJconsts(double %0, double %1, ptr noundef readonly captures(none) %2) #3 {
  %4 = getelementptr inbounds nuw i8, ptr %2, i64 88
  %5 = load ptr, ptr %4, align 8, !tbaa !47
  %6 = getelementptr inbounds nuw i8, ptr %5, i64 192
  %7 = load double, ptr %6, align 8, !tbaa !73
  %8 = tail call double @cos(double noundef %7) #10, !tbaa !83
  %9 = getelementptr inbounds nuw i8, ptr %5, i64 168
  %10 = load double, ptr %9, align 8, !tbaa !72
  %11 = fmul double %8, %10
  %12 = tail call double @sin(double noundef %7) #10, !tbaa !83
  %13 = fmul double %10, %12
  %14 = fmul double %1, %13
  %15 = tail call double @llvm.fmuladd.f64(double %11, double %0, double %14)
  %16 = getelementptr inbounds nuw i8, ptr %5, i64 24
  %17 = load double, ptr %16, align 8, !tbaa !50
  %18 = fadd double %17, %15
  %19 = fneg double %13
  %20 = fmul double %1, %11
  %21 = tail call double @llvm.fmuladd.f64(double %19, double %0, double %20)
  %22 = getelementptr inbounds nuw i8, ptr %5, i64 32
  %23 = load double, ptr %22, align 8, !tbaa !54
  %24 = fadd double %21, %23
  %.fca.0.insert = insertvalue { double, double } poison, double %18, 0
  %.fca.1.insert = insertvalue { double, double } %.fca.0.insert, double %24, 1
  ret { double, double } %.fca.1.insert
}